target datalayout = "e-m:e-p270:32:32-p271:32:32-p272:64:64-i64:64-i128:128-f80:128-n8:16:32:64-S128"
target triple = "x86_64-pc-linux-gnu"

%struct.ident_t = type { i32, i32, i32, i32, ptr }
%"struct.faiss::ClusteringParameters" = type { i32, i32, i8, i8, i8, i8, i8, i32, i32, i32, i64 }
%"class.std::vector" = type { %"struct.std::_Vector_base" }
%"struct.std::_Vector_base" = type { %"struct.std::_Vector_base<float, std::allocator<float>>::_Vector_impl" }
%"struct.std::_Vector_base<float, std::allocator<float>>::_Vector_impl" = type { %"struct.std::_Vector_base<float, std::allocator<float>>::_Vector_impl_data" }
%"struct.std::_Vector_base<float, std::allocator<float>>::_Vector_impl_data" = type { ptr, ptr, ptr }
%"struct.faiss::ProductQuantizer" = type { %"struct.faiss::Quantizer", i64, i64, i64, i64, i8, i32, %"struct.faiss::ClusteringParameters", ptr, %"class.std::vector", %"class.std::vector", %"class.std::vector", %"class.std::vector" }
%"struct.faiss::Quantizer" = type { ptr, i64, i64 }

@1 = private unnamed_addr constant %struct.ident_t { i32 0, i32 514, i32 0, i32 22, ptr @0 }, align 8

; Function Attrs: mustprogress nounwind uwtable
define linkonce_odr noundef ptr @_ZNKSt6vectorIfSaIfEE11_M_data_ptrIfEEPT_S4_(ptr noundef nonnull align 8 dereferenceable(24) %0, ptr noundef %1) #1 comdat align 2 {
  %3 = alloca ptr, align 8
  %4 = alloca ptr, align 8
  store ptr %0, ptr %3, align 8
  store ptr %1, ptr %4, align 8
  %5 = load ptr, ptr %4, align 8
  ret ptr %5
}

; Function Attrs: mustprogress nounwind uwtable
define linkonce_odr noundef ptr @_ZNSt6vectorIfSaIfEE4dataEv(ptr noundef nonnull align 8 dereferenceable(24) %0) #1 comdat align 2 {
  %2 = alloca ptr, align 8
  store ptr %0, ptr %2, align 8
  %3 = load ptr, ptr %2, align 8
  %4 = getelementptr inbounds %"struct.std::_Vector_base", ptr %3, i32 0, i32 0
  %5 = getelementptr inbounds %"struct.std::_Vector_base<float, std::allocator<float>>::_Vector_impl_data", ptr %4, i32 0, i32 0
  %6 = load ptr, ptr %5, align 8
  %7 = call noundef ptr @_ZNKSt6vectorIfSaIfEE11_M_data_ptrIfEEPT_S4_(ptr noundef nonnull align 8 dereferenceable(24) %3, ptr noundef %6) #12
  ret ptr %7
}

; Function Attrs: norecurse nounwind uwtable
define internal void @_ZN5faiss16ProductQuantizer17compute_sdc_tableEv.omp_outlined.14(ptr noalias noundef %0, ptr noalias noundef %1, ptr noundef %2) #11 personality ptr @__gxx_personality_v0 {
  %4 = alloca ptr, align 8
  %5 = alloca ptr, align 8
  %6 = alloca ptr, align 8
  %7 = alloca i32, align 4
  %8 = alloca i64, align 8
  %9 = alloca i32, align 4
  %10 = alloca i32, align 4
  %11 = alloca i32, align 4
  %12 = alloca i32, align 4
  %13 = alloca i32, align 4
  %14 = alloca i32, align 4
  %15 = alloca i32, align 4
  %16 = alloca ptr, align 8
  %17 = alloca ptr, align 8
  store ptr %0, ptr %4, align 8
  store ptr %1, ptr %5, align 8
  store ptr %2, ptr %6, align 8
  %18 = load ptr, ptr %6, align 8
  %19 = getelementptr inbounds %"struct.faiss::ProductQuantizer", ptr %18, i32 0, i32 1
  %20 = load i64, ptr %19, align 8
  store i64 %20, ptr %8, align 8
  %21 = load i64, ptr %8, align 8
  %22 = sub i64 %21, 0
  %23 = udiv i64 %22, 1
  %24 = trunc i64 %23 to i32
  %25 = sub nsw i32 %24, 1
  store i32 %25, ptr %9, align 4
  store i32 0, ptr %10, align 4
  %26 = load i64, ptr %8, align 8
  %27 = icmp ult i64 0, %26
  br i1 %27, label %28, label %96

28:                                               ; preds = %3
  store i32 0, ptr %11, align 4
  %29 = load i32, ptr %9, align 4
  store i32 %29, ptr %12, align 4
  store i32 1, ptr %13, align 4
  store i32 0, ptr %14, align 4
  %30 = load ptr, ptr %4, align 8
  %31 = load i32, ptr %30, align 4
  call void @__kmpc_for_static_init_4(ptr @1, i32 %31, i32 34, ptr %14, ptr %11, ptr %12, ptr %13, i32 1, i32 1)
  %32 = load i32, ptr %12, align 4
  %33 = load i32, ptr %9, align 4
  %34 = icmp sgt i32 %32, %33
  br i1 %34, label %35, label %37

35:                                               ; preds = %28
  %36 = load i32, ptr %9, align 4
  br label %39

37:                                               ; preds = %28
  %38 = load i32, ptr %12, align 4
  br label %39

39:                                               ; preds = %37, %35
  %40 = phi i32 [ %36, %35 ], [ %38, %37 ]
  store i32 %40, ptr %12, align 4
  %41 = load i32, ptr %11, align 4
  store i32 %41, ptr %7, align 4
  br label %42

42:                                               ; preds = %89, %39
  %43 = load i32, ptr %7, align 4
  %44 = load i32, ptr %12, align 4
  %45 = icmp sle i32 %43, %44
  br i1 %45, label %46, label %92

46:                                               ; preds = %42
  %47 = load i32, ptr %7, align 4
  %48 = mul nsw i32 %47, 1
  %49 = add nsw i32 0, %48
  store i32 %49, ptr %15, align 4
  %50 = getelementptr inbounds %"struct.faiss::ProductQuantizer", ptr %18, i32 0, i32 9
  %51 = call noundef ptr @_ZNSt6vectorIfSaIfEE4dataEv(ptr noundef nonnull align 8 dereferenceable(24) %50) #12
  %52 = load i32, ptr %15, align 4
  %53 = sext i32 %52 to i64
  %54 = getelementptr inbounds %"struct.faiss::ProductQuantizer", ptr %18, i32 0, i32 4
  %55 = load i64, ptr %54, align 8
  %56 = mul i64 %53, %55
  %57 = getelementptr inbounds %"struct.faiss::ProductQuantizer", ptr %18, i32 0, i32 3
  %58 = load i64, ptr %57, align 8
  %59 = mul i64 %56, %58
  %60 = getelementptr inbounds float, ptr %51, i64 %59
  store ptr %60, ptr %16, align 8
  %61 = getelementptr inbounds %"struct.faiss::ProductQuantizer", ptr %18, i32 0, i32 12
  %62 = call noundef ptr @_ZNSt6vectorIfSaIfEE4dataEv(ptr noundef nonnull align 8 dereferenceable(24) %61) #12
  %63 = load i32, ptr %15, align 4
  %64 = sext i32 %63 to i64
  %65 = getelementptr inbounds %"struct.faiss::ProductQuantizer", ptr %18, i32 0, i32 4
  %66 = load i64, ptr %65, align 8
  %67 = mul i64 %64, %66
  %68 = getelementptr inbounds %"struct.faiss::ProductQuantizer", ptr %18, i32 0, i32 4
  %69 = load i64, ptr %68, align 8
  %70 = mul i64 %67, %69
  %71 = getelementptr inbounds float, ptr %62, i64 %70
  store ptr %71, ptr %17, align 8
  %72 = getelementptr inbounds %"struct.faiss::ProductQuantizer", ptr %18, i32 0, i32 3
  %73 = load i64, ptr %72, align 8
  %74 = getelementptr inbounds %"struct.faiss::ProductQuantizer", ptr %18, i32 0, i32 4
  %75 = load i64, ptr %74, align 8
  %76 = load ptr, ptr %16, align 8
  %77 = getelementptr inbounds %"struct.faiss::ProductQuantizer", ptr %18, i32 0, i32 4
  %78 = load i64, ptr %77, align 8
  %79 = load ptr, ptr %16, align 8
  %80 = load ptr, ptr %17, align 8
  %81 = getelementptr inbounds %"struct.faiss::ProductQuantizer", ptr %18, i32 0, i32 3
  %82 = load i64, ptr %81, align 8
  %83 = getelementptr inbounds %"struct.faiss::ProductQuantizer", ptr %18, i32 0, i32 3
  %84 = load i64, ptr %83, align 8
  %85 = getelementptr inbounds %"struct.faiss::ProductQuantizer", ptr %18, i32 0, i32 4
  %86 = load i64, ptr %85, align 8
  invoke void @_ZN5faiss14pairwise_L2sqrEllPKflS1_Pflll(i64 noundef %73, i64 noundef %75, ptr noundef %76, i64 noundef %78, ptr noundef %79, ptr noundef %80, i64 noundef %82, i64 noundef %84, i64 noundef %86)
          to label %87 unwind label %97

87:                                               ; preds = %46
  br label %88

88:                                               ; preds = %87
  br label %89

89:                                               ; preds = %88
  %90 = load i32, ptr %7, align 4
  %91 = add nsw i32 %90, 1
  store i32 %91, ptr %7, align 4
  br label %42

92:                                               ; preds = %42
  br label %93

93:                                               ; preds = %92
  %94 = load ptr, ptr %4, align 8
  %95 = load i32, ptr %94, align 4
  call void @__kmpc_for_static_fini(ptr @1, i32 %95)
  br label %96

96:                                               ; preds = %93, %3
  ret void

97:                                               ; preds = %46
  %98 = landingpad { ptr, i32 }
          catch ptr null
  %99 = extractvalue { ptr, i32 } %98, 0
  call void @__clang_call_terminate(ptr %99) #16
  unreachable
}