; Function Attrs: norecurse nounwind uwtable
define internal void @_ZN5faiss16ProductQuantizer17compute_sdc_tableEv.omp_outlined.14(ptr noalias nocapture noundef readonly %0, ptr noalias nocapture readnone %1, ptr nocapture noundef readonly %2) #15 personality ptr @__gxx_personality_v0 {
  %4 = alloca i32, align 4
  %5 = alloca i32, align 4
  %6 = alloca i32, align 4
  %7 = alloca i32, align 4
  %8 = getelementptr inbounds i8, ptr %2, i64 24
  %9 = load i64, ptr %8, align 8
  %.not = icmp eq i64 %9, 0
  br i1 %.not, label %35, label %10

10:                                               ; preds = %3
  %11 = trunc i64 %9 to i32
  %12 = add nsw i32 %11, -1
  store i32 0, ptr %4, align 4
  store i32 %12, ptr %5, align 4
  store i32 1, ptr %6, align 4
  store i32 0, ptr %7, align 4
  %13 = load i32, ptr %0, align 4
  call void @__kmpc_for_static_init_4(ptr nonnull @1, i32 %13, i32 34, ptr nonnull %7, ptr nonnull %4, ptr nonnull %5, ptr nonnull %6, i32 1, i32 1)
  %14 = load i32, ptr %5, align 4
  %15 = call i32 @llvm.smin.i32(i32 %14, i32 %12)
  store i32 %15, ptr %5, align 4
  %16 = load i32, ptr %4, align 4
  %.not1516 = icmp sgt i32 %16, %15
  br i1 %.not1516, label %._crit_edge, label %.lr.ph

.lr.ph:                                           ; preds = %10
  %17 = getelementptr inbounds i8, ptr %2, i64 112
  %18 = getelementptr inbounds i8, ptr %2, i64 48
  %19 = getelementptr inbounds i8, ptr %2, i64 40
  %20 = getelementptr inbounds i8, ptr %2, i64 184
  %21 = sext i32 %16 to i64
  br label %22

22:                                               ; preds = %.lr.ph, %32
  %indvars.iv = phi i64 [ %21, %.lr.ph ], [ %indvars.iv.next, %32 ]
  %23 = load ptr, ptr %17, align 8
  %24 = load i64, ptr %18, align 8
  %25 = mul i64 %24, %indvars.iv
  %26 = load i64, ptr %19, align 8
  %27 = mul i64 %25, %26
  %28 = getelementptr inbounds float, ptr %23, i64 %27
  %29 = load ptr, ptr %20, align 8
  %30 = mul i64 %25, %24
  %31 = getelementptr inbounds float, ptr %29, i64 %30
  invoke void @_ZN5faiss14pairwise_L2sqrEllPKflS1_Pflll(i64 noundef %26, i64 noundef %24, ptr noundef %28, i64 noundef %24, ptr noundef %28, ptr noundef %31, i64 noundef %26, i64 noundef %26, i64 noundef %24)
          to label %32 unwind label %36

32:                                               ; preds = %22
  %indvars.iv.next = add nsw i64 %indvars.iv, 1
  %33 = load i32, ptr %5, align 4
  %34 = sext i32 %33 to i64
  %.not15.not = icmp slt i64 %indvars.iv, %34
  br i1 %.not15.not, label %22, label %._crit_edge

._crit_edge:                                      ; preds = %32, %10
  call void @__kmpc_for_static_fini(ptr nonnull @1, i32 %13)
  br label %35

35:                                               ; preds = %._crit_edge, %3
  ret void

36:                                               ; preds = %22
  %37 = landingpad { ptr, i32 }
          catch ptr null
  %38 = extractvalue { ptr, i32 } %37, 0
  call void @__clang_call_terminate(ptr %38) #26
  unreachable
}